target datalayout = "e-m:e-p270:32:32-p271:32:32-p272:64:64-i64:64-i128:128-f80:128-n8:16:32:64-S128"
target triple = "x86_64-pc-linux-gnu"

%struct.hb_face_builder_data_t = type { %struct.hb_hashmap_t }
%struct.hb_hashmap_t = type { %struct.hb_object_header_t, i32, i32, i32, i32, i32, ptr }
%struct.hb_object_header_t = type { %struct.hb_reference_count_t, %struct.hb_atomic_int_t, %struct.hb_atomic_ptr_t }
%struct.hb_reference_count_t = type { %struct.hb_atomic_int_t }
%struct.hb_atomic_int_t = type { i32 }
%struct.hb_atomic_ptr_t = type { ptr }

; Function Attrs: mustprogress nounwind uwtable
define linkonce_odr hidden void @_ZN15hb_atomic_ptr_tI20hb_user_data_array_tE11set_relaxedEPS0_(ptr noundef nonnull align 8 dereferenceable(8) %0, ptr noundef %1) #3 comdat align 2 {
  %3 = alloca ptr, align 8
  %4 = alloca ptr, align 8
  %5 = alloca ptr, align 8
  store ptr %0, ptr %3, align 8
  store ptr %1, ptr %4, align 8
  %6 = load ptr, ptr %3, align 8
  %7 = getelementptr inbounds %struct.hb_atomic_ptr_t, ptr %6, i32 0, i32 0
  %8 = load ptr, ptr %4, align 8
  store ptr %8, ptr %5, align 8
  %9 = load i64, ptr %5, align 8
  store atomic i64 %9, ptr %7 monotonic, align 8
  ret void
}

; Function Attrs: mustprogress nounwind uwtable
define linkonce_odr hidden void @_ZN15hb_atomic_int_t11set_relaxedEi(ptr noundef nonnull align 4 dereferenceable(4) %0, i32 noundef %1) #3 comdat align 2 {
  %3 = alloca ptr, align 8
  %4 = alloca i32, align 4
  %5 = alloca i32, align 4
  store ptr %0, ptr %3, align 8
  store i32 %1, ptr %4, align 4
  %6 = load ptr, ptr %3, align 8
  %7 = getelementptr inbounds %struct.hb_atomic_int_t, ptr %6, i32 0, i32 0
  %8 = load i32, ptr %4, align 4
  store i32 %8, ptr %5, align 4
  %9 = load i32, ptr %5, align 4
  store atomic i32 %9, ptr %7 monotonic, align 4
  ret void
}

; Function Attrs: mustprogress uwtable
define linkonce_odr hidden void @_ZN15hb_atomic_ptr_tI20hb_user_data_array_tE4initEPS0_(ptr noundef nonnull align 8 dereferenceable(8) %0, ptr noundef %1) #0 comdat align 2 {
  %3 = alloca ptr, align 8
  %4 = alloca ptr, align 8
  store ptr %0, ptr %3, align 8
  store ptr %1, ptr %4, align 8
  %5 = load ptr, ptr %3, align 8
  %6 = load ptr, ptr %4, align 8
  call void @_ZN15hb_atomic_ptr_tI20hb_user_data_array_tE11set_relaxedEPS0_(ptr noundef nonnull align 8 dereferenceable(8) %5, ptr noundef %6)
  ret void
}

; Function Attrs: mustprogress uwtable
define linkonce_odr hidden noundef nonnull align 4 dereferenceable(4) ptr @_ZN15hb_atomic_int_taSEi(ptr noundef nonnull align 4 dereferenceable(4) %0, i32 noundef %1) #0 comdat align 2 {
  %3 = alloca ptr, align 8
  %4 = alloca i32, align 4
  store ptr %0, ptr %3, align 8
  store i32 %1, ptr %4, align 4
  %5 = load ptr, ptr %3, align 8
  %6 = load i32, ptr %4, align 4
  call void @_ZN15hb_atomic_int_t11set_relaxedEi(ptr noundef nonnull align 4 dereferenceable(4) %5, i32 noundef %6)
  ret ptr %5
}

; Function Attrs: mustprogress uwtable
define linkonce_odr hidden void @_ZN20hb_reference_count_t4initEi(ptr noundef nonnull align 4 dereferenceable(4) %0, i32 noundef %1) #0 comdat align 2 {
  %3 = alloca ptr, align 8
  %4 = alloca i32, align 4
  store ptr %0, ptr %3, align 8
  store i32 %1, ptr %4, align 4
  %5 = load ptr, ptr %3, align 8
  %6 = load i32, ptr %4, align 4
  %7 = getelementptr inbounds %struct.hb_reference_count_t, ptr %5, i32 0, i32 0
  %8 = call noundef nonnull align 4 dereferenceable(4) ptr @_ZN15hb_atomic_int_taSEi(ptr noundef nonnull align 4 dereferenceable(4) %7, i32 noundef %6)
  ret void
}

; Function Attrs: mustprogress uwtable
define internal void @_ZL14hb_object_initI12hb_hashmap_tIj17face_table_info_tLb0EEEvPT_(ptr noundef %0) #0 {
  %2 = alloca ptr, align 8
  store ptr %0, ptr %2, align 8
  %3 = load ptr, ptr %2, align 8
  %4 = getelementptr inbounds %struct.hb_hashmap_t, ptr %3, i32 0, i32 0
  %5 = getelementptr inbounds %struct.hb_object_header_t, ptr %4, i32 0, i32 0
  call void @_ZN20hb_reference_count_t4initEi(ptr noundef nonnull align 4 dereferenceable(4) %5, i32 noundef 1)
  %6 = load ptr, ptr %2, align 8
  %7 = getelementptr inbounds %struct.hb_hashmap_t, ptr %6, i32 0, i32 0
  %8 = getelementptr inbounds %struct.hb_object_header_t, ptr %7, i32 0, i32 1
  %9 = call noundef nonnull align 4 dereferenceable(4) ptr @_ZN15hb_atomic_int_taSEi(ptr noundef nonnull align 4 dereferenceable(4) %8, i32 noundef 1)
  %10 = load ptr, ptr %2, align 8
  %11 = getelementptr inbounds %struct.hb_hashmap_t, ptr %10, i32 0, i32 0
  %12 = getelementptr inbounds %struct.hb_object_header_t, ptr %11, i32 0, i32 2
  call void @_ZN15hb_atomic_ptr_tI20hb_user_data_array_tE4initEPS0_(ptr noundef nonnull align 8 dereferenceable(8) %12, ptr noundef null)
  ret void
}

; Function Attrs: mustprogress uwtable
define linkonce_odr hidden void @_ZN12hb_hashmap_tIj17face_table_info_tLb0EE4initEv(ptr noundef nonnull align 8 dereferenceable(48) %0) #0 comdat align 2 {
  %2 = alloca ptr, align 8
  store ptr %0, ptr %2, align 8
  %3 = load ptr, ptr %2, align 8
  call void @_ZL14hb_object_initI12hb_hashmap_tIj17face_table_info_tLb0EEEvPT_(ptr noundef %3)
  %4 = getelementptr inbounds %struct.hb_hashmap_t, ptr %3, i32 0, i32 1
  %5 = load i32, ptr %4, align 8
  %6 = and i32 %5, -2
  %7 = or i32 %6, 1
  store i32 %7, ptr %4, align 8
  %8 = getelementptr inbounds %struct.hb_hashmap_t, ptr %3, i32 0, i32 2
  store i32 0, ptr %8, align 4
  %9 = getelementptr inbounds %struct.hb_hashmap_t, ptr %3, i32 0, i32 1
  %10 = load i32, ptr %9, align 8
  %11 = and i32 %10, 1
  %12 = or i32 %11, 0
  store i32 %12, ptr %9, align 8
  %13 = getelementptr inbounds %struct.hb_hashmap_t, ptr %3, i32 0, i32 3
  store i32 0, ptr %13, align 8
  %14 = getelementptr inbounds %struct.hb_hashmap_t, ptr %3, i32 0, i32 4
  store i32 0, ptr %14, align 4
  %15 = getelementptr inbounds %struct.hb_hashmap_t, ptr %3, i32 0, i32 5
  store i32 0, ptr %15, align 8
  %16 = getelementptr inbounds %struct.hb_hashmap_t, ptr %3, i32 0, i32 6
  store ptr null, ptr %16, align 8
  ret void
}

; Function Attrs: mustprogress uwtable
define internal noundef ptr @_ZL28_hb_face_builder_data_createv() #0 {
  %1 = alloca ptr, align 8
  %2 = alloca ptr, align 8
  %3 = call noalias ptr @calloc(i64 noundef 1, i64 noundef 48) #12
  store ptr %3, ptr %2, align 8
  %4 = load ptr, ptr %2, align 8
  %5 = icmp ne ptr %4, null
  br i1 %5, label %7, label %6

6:                                                ; preds = %0
  store ptr null, ptr %1, align 8
  br label %11

7:                                                ; preds = %0
  %8 = load ptr, ptr %2, align 8
  %9 = getelementptr inbounds %struct.hb_face_builder_data_t, ptr %8, i32 0, i32 0
  call void @_ZN12hb_hashmap_tIj17face_table_info_tLb0EE4initEv(ptr noundef nonnull align 8 dereferenceable(48) %9)
  %10 = load ptr, ptr %2, align 8
  store ptr %10, ptr %1, align 8
  br label %11

11:                                               ; preds = %7, %6
  %12 = load ptr, ptr %1, align 8
  ret ptr %12
}

; Function Attrs: mustprogress uwtable
define hidden ptr @hb_face_builder_create() #0 {
  %1 = alloca ptr, align 8
  %2 = alloca ptr, align 8
  %3 = call noundef ptr @_ZL28_hb_face_builder_data_createv()
  store ptr %3, ptr %2, align 8
  %4 = load ptr, ptr %2, align 8
  %5 = icmp ne ptr %4, null
  br i1 %5, label %8, label %6

6:                                                ; preds = %0
  %7 = call ptr @hb_face_get_empty()
  store ptr %7, ptr %1, align 8
  br label %11

8:                                                ; preds = %0
  %9 = load ptr, ptr %2, align 8
  %10 = call ptr @hb_face_create_for_tables(ptr noundef @_ZL32_hb_face_builder_reference_tableP9hb_face_tjPv, ptr noundef %9, ptr noundef @_ZL29_hb_face_builder_data_destroyPv)
  store ptr %10, ptr %1, align 8
  br label %11

11:                                               ; preds = %8, %6
  %12 = load ptr, ptr %1, align 8
  ret ptr %12
}