; Function Attrs: mustprogress uwtable
define hidden ptr @hb_face_builder_create() local_unnamed_addr #0 {
  %1 = tail call noalias dereferenceable_or_null(48) ptr @calloc(i64 noundef 1, i64 noundef 48) #18
  %.not.i = icmp eq ptr %1, null
  br i1 %.not.i, label %2, label %4

2:                                                ; preds = %0
  %3 = tail call ptr @hb_face_get_empty()
  br label %11

4:                                                ; preds = %0
  store atomic i32 1, ptr %1 monotonic, align 4
  %5 = getelementptr inbounds i8, ptr %1, i64 4
  store atomic i32 1, ptr %5 monotonic, align 4
  %6 = getelementptr inbounds i8, ptr %1, i64 8
  store atomic i64 0, ptr %6 monotonic, align 8
  %7 = getelementptr inbounds i8, ptr %1, i64 16
  store <4 x i32> <i32 1, i32 0, i32 0, i32 0>, ptr %7, align 8
  %8 = getelementptr inbounds i8, ptr %1, i64 32
  store i32 0, ptr %8, align 8
  %9 = getelementptr inbounds i8, ptr %1, i64 40
  store ptr null, ptr %9, align 8
  %10 = tail call ptr @hb_face_create_for_tables(ptr noundef nonnull @_ZL32_hb_face_builder_reference_tableP9hb_face_tjPv, ptr noundef nonnull %1, ptr noundef nonnull @_ZL29_hb_face_builder_data_destroyPv)
  br label %11

11:                                               ; preds = %4, %2
  %.0 = phi ptr [ %10, %4 ], [ %3, %2 ]
  ret ptr %.0
}